target datalayout = "e-m:e-p270:32:32-p271:32:32-p272:64:64-i64:64-i128:128-f80:128-n8:16:32:64-S128"
target triple = "x86_64-unknown-linux-gnu"

%"class.pugi::xml_node" = type { ptr }
%"class.pugi::xml_attribute" = type { ptr }
%"class.std::__cxx11::basic_string" = type { %"struct.std::__cxx11::basic_string<char>::_Alloc_hider", i64, %union.anon }
%"struct.std::__cxx11::basic_string<char>::_Alloc_hider" = type { ptr }
%union.anon = type { i64, [8 x i8] }
%"class.std::allocator.3" = type { i8 }
%"struct.pugi::xml_node_struct" = type { i64, ptr, ptr, ptr, ptr, ptr, ptr, ptr }
%"struct.pugi::xml_attribute_struct" = type { i64, ptr, ptr, ptr, ptr }

@.str.5 = private unnamed_addr constant [10 x i8] c"Not found\00", align 1
@.str.7 = private unnamed_addr constant [1 x i8] zeroinitializer, align 1

; Function Attrs: mustprogress uwtable
define linkonce_odr hidden noundef i32 @_ZN4pugi4impl13get_value_intEPKc(ptr noundef %value) #2 comdat {
entry:
  %value.addr = alloca ptr, align 8
  store ptr %value, ptr %value.addr, align 8
  %0 = load ptr, ptr %value.addr, align 8
  %call = call noundef i32 @_ZN4pugi4impl17string_to_integerIjEET_PKcS2_S2_(ptr noundef %0, i32 noundef -2147483648, i32 noundef 2147483647)
  ret i32 %call
}

; Function Attrs: mustprogress nounwind uwtable
define linkonce_odr hidden void @_ZN4pugi13xml_attributeC2EPNS_20xml_attribute_structE(ptr noundef nonnull align 8 dereferenceable(8) %this, ptr noundef %attr) unnamed_addr #0 comdat align 2 {
entry:
  %this.addr = alloca ptr, align 8
  %attr.addr = alloca ptr, align 8
  store ptr %this, ptr %this.addr, align 8
  store ptr %attr, ptr %attr.addr, align 8
  %this1 = load ptr, ptr %this.addr, align 8
  %_attr = getelementptr inbounds %"class.pugi::xml_attribute", ptr %this1, i32 0, i32 0
  %0 = load ptr, ptr %attr.addr, align 8
  store ptr %0, ptr %_attr, align 8
  ret void
}

; Function Attrs: mustprogress nounwind uwtable
define linkonce_odr hidden noundef zeroext i1 @_ZN4pugi4impl8strequalEPKcS2_(ptr noundef %src, ptr noundef %dst) #0 comdat {
entry:
  %src.addr = alloca ptr, align 8
  %dst.addr = alloca ptr, align 8
  store ptr %src, ptr %src.addr, align 8
  store ptr %dst, ptr %dst.addr, align 8
  %0 = load ptr, ptr %src.addr, align 8
  %1 = load ptr, ptr %dst.addr, align 8
  %call = call i32 @strcmp(ptr noundef %0, ptr noundef %1) #22
  %cmp = icmp eq i32 %call, 0
  ret i1 %cmp
}

; Function Attrs: mustprogress nounwind uwtable
define linkonce_odr hidden void @_ZN4pugi13xml_attributeC2Ev(ptr noundef nonnull align 8 dereferenceable(8) %this) unnamed_addr #0 comdat align 2 {
entry:
  %this.addr = alloca ptr, align 8
  store ptr %this, ptr %this.addr, align 8
  %this1 = load ptr, ptr %this.addr, align 8
  %_attr = getelementptr inbounds %"class.pugi::xml_attribute", ptr %this1, i32 0, i32 0
  store ptr null, ptr %_attr, align 8
  ret void
}

; Function Attrs: mustprogress nounwind uwtable
define linkonce_odr hidden noundef zeroext i1 @_ZNK4pugi13xml_attribute5emptyEv(ptr noundef nonnull align 8 dereferenceable(8) %this) #0 comdat align 2 {
entry:
  %this.addr = alloca ptr, align 8
  store ptr %this, ptr %this.addr, align 8
  %this1 = load ptr, ptr %this.addr, align 8
  %_attr = getelementptr inbounds %"class.pugi::xml_attribute", ptr %this1, i32 0, i32 0
  %0 = load ptr, ptr %_attr, align 8
  %tobool = icmp ne ptr %0, null
  %lnot = xor i1 %tobool, true
  ret i1 %lnot
}

; Function Attrs: mustprogress uwtable
define linkonce_odr hidden noundef i32 @_ZNK4pugi13xml_attribute6as_intEi(ptr noundef nonnull align 8 dereferenceable(8) %this, i32 noundef %def) #2 comdat align 2 {
entry:
  %retval = alloca i32, align 4
  %this.addr = alloca ptr, align 8
  %def.addr = alloca i32, align 4
  %value = alloca ptr, align 8
  store ptr %this, ptr %this.addr, align 8
  store i32 %def, ptr %def.addr, align 4
  %this1 = load ptr, ptr %this.addr, align 8
  %_attr = getelementptr inbounds %"class.pugi::xml_attribute", ptr %this1, i32 0, i32 0
  %0 = load ptr, ptr %_attr, align 8
  %tobool = icmp ne ptr %0, null
  br i1 %tobool, label %if.end, label %if.then

if.then:                                          ; preds = %entry
  %1 = load i32, ptr %def.addr, align 4
  store i32 %1, ptr %retval, align 4
  br label %return

if.end:                                           ; preds = %entry
  %_attr2 = getelementptr inbounds %"class.pugi::xml_attribute", ptr %this1, i32 0, i32 0
  %2 = load ptr, ptr %_attr2, align 8
  %value3 = getelementptr inbounds %"struct.pugi::xml_attribute_struct", ptr %2, i32 0, i32 2
  %3 = load ptr, ptr %value3, align 8
  store ptr %3, ptr %value, align 8
  %4 = load ptr, ptr %value, align 8
  %tobool4 = icmp ne ptr %4, null
  br i1 %tobool4, label %cond.true, label %cond.false

cond.true:                                        ; preds = %if.end
  %5 = load ptr, ptr %value, align 8
  %call = call noundef i32 @_ZN4pugi4impl13get_value_intEPKc(ptr noundef %5)
  br label %cond.end

cond.false:                                       ; preds = %if.end
  %6 = load i32, ptr %def.addr, align 4
  br label %cond.end

cond.end:                                         ; preds = %cond.false, %cond.true
  %cond = phi i32 [ %call, %cond.true ], [ %6, %cond.false ]
  store i32 %cond, ptr %retval, align 4
  br label %return

return:                                           ; preds = %cond.end, %if.then
  %7 = load i32, ptr %retval, align 4
  ret i32 %7
}

; Function Attrs: mustprogress uwtable
define linkonce_odr hidden ptr @_ZNK4pugi8xml_node9attributeEPKc(ptr noundef nonnull align 8 dereferenceable(8) %this, ptr noundef %name_) #2 comdat align 2 {
entry:
  %retval = alloca %"class.pugi::xml_attribute", align 8
  %this.addr = alloca ptr, align 8
  %name_.addr = alloca ptr, align 8
  %i = alloca ptr, align 8
  %iname = alloca ptr, align 8
  store ptr %this, ptr %this.addr, align 8
  store ptr %name_, ptr %name_.addr, align 8
  %this1 = load ptr, ptr %this.addr, align 8
  %_root = getelementptr inbounds %"class.pugi::xml_node", ptr %this1, i32 0, i32 0
  %0 = load ptr, ptr %_root, align 8
  %tobool = icmp ne ptr %0, null
  br i1 %tobool, label %if.end, label %if.then

if.then:                                          ; preds = %entry
  call void @_ZN4pugi13xml_attributeC2Ev(ptr noundef nonnull align 8 dereferenceable(8) %retval)
  br label %return

if.end:                                           ; preds = %entry
  %_root2 = getelementptr inbounds %"class.pugi::xml_node", ptr %this1, i32 0, i32 0
  %1 = load ptr, ptr %_root2, align 8
  %first_attribute = getelementptr inbounds %"struct.pugi::xml_node_struct", ptr %1, i32 0, i32 7
  %2 = load ptr, ptr %first_attribute, align 8
  store ptr %2, ptr %i, align 8
  br label %for.cond

for.cond:                                         ; preds = %for.inc, %if.end
  %3 = load ptr, ptr %i, align 8
  %tobool3 = icmp ne ptr %3, null
  br i1 %tobool3, label %for.body, label %for.end

for.body:                                         ; preds = %for.cond
  %4 = load ptr, ptr %i, align 8
  %name = getelementptr inbounds %"struct.pugi::xml_attribute_struct", ptr %4, i32 0, i32 1
  %5 = load ptr, ptr %name, align 8
  store ptr %5, ptr %iname, align 8
  %6 = load ptr, ptr %iname, align 8
  %tobool4 = icmp ne ptr %6, null
  br i1 %tobool4, label %land.lhs.true, label %if.end6

land.lhs.true:                                    ; preds = %for.body
  %7 = load ptr, ptr %name_.addr, align 8
  %8 = load ptr, ptr %iname, align 8
  %call = call noundef zeroext i1 @_ZN4pugi4impl8strequalEPKcS2_(ptr noundef %7, ptr noundef %8)
  br i1 %call, label %if.then5, label %if.end6

if.then5:                                         ; preds = %land.lhs.true
  %9 = load ptr, ptr %i, align 8
  call void @_ZN4pugi13xml_attributeC2EPNS_20xml_attribute_structE(ptr noundef nonnull align 8 dereferenceable(8) %retval, ptr noundef %9)
  br label %return

if.end6:                                          ; preds = %land.lhs.true, %for.body
  br label %for.inc

for.inc:                                          ; preds = %if.end6
  %10 = load ptr, ptr %i, align 8
  %next_attribute = getelementptr inbounds %"struct.pugi::xml_attribute_struct", ptr %10, i32 0, i32 4
  %11 = load ptr, ptr %next_attribute, align 8
  store ptr %11, ptr %i, align 8
  br label %for.cond, !llvm.loop !4

for.end:                                          ; preds = %for.cond
  call void @_ZN4pugi13xml_attributeC2Ev(ptr noundef nonnull align 8 dereferenceable(8) %retval)
  br label %return

return:                                           ; preds = %for.end, %if.then5, %if.then
  %coerce.dive = getelementptr inbounds %"class.pugi::xml_attribute", ptr %retval, i32 0, i32 0
  %12 = load ptr, ptr %coerce.dive, align 8
  ret ptr %12
}

; Function Attrs: mustprogress nounwind uwtable
define linkonce_odr hidden noundef ptr @_ZNK4pugi8xml_node4nameEv(ptr noundef nonnull align 8 dereferenceable(8) %this) #0 comdat align 2 {
entry:
  %retval = alloca ptr, align 8
  %this.addr = alloca ptr, align 8
  %name = alloca ptr, align 8
  store ptr %this, ptr %this.addr, align 8
  %this1 = load ptr, ptr %this.addr, align 8
  %_root = getelementptr inbounds %"class.pugi::xml_node", ptr %this1, i32 0, i32 0
  %0 = load ptr, ptr %_root, align 8
  %tobool = icmp ne ptr %0, null
  br i1 %tobool, label %if.end, label %if.then

if.then:                                          ; preds = %entry
  store ptr @.str.7, ptr %retval, align 8
  br label %return

if.end:                                           ; preds = %entry
  %_root2 = getelementptr inbounds %"class.pugi::xml_node", ptr %this1, i32 0, i32 0
  %1 = load ptr, ptr %_root2, align 8
  %name3 = getelementptr inbounds %"struct.pugi::xml_node_struct", ptr %1, i32 0, i32 1
  %2 = load ptr, ptr %name3, align 8
  store ptr %2, ptr %name, align 8
  %3 = load ptr, ptr %name, align 8
  %tobool4 = icmp ne ptr %3, null
  br i1 %tobool4, label %cond.true, label %cond.false

cond.true:                                        ; preds = %if.end
  %4 = load ptr, ptr %name, align 8
  br label %cond.end

cond.false:                                       ; preds = %if.end
  br label %cond.end

cond.end:                                         ; preds = %cond.false, %cond.true
  %cond = phi ptr [ %4, %cond.true ], [ @.str.7, %cond.false ]
  store ptr %cond, ptr %retval, align 8
  br label %return

return:                                           ; preds = %cond.end, %if.then
  %5 = load ptr, ptr %retval, align 8
  ret ptr %5
}

; Function Attrs: mustprogress uwtable
define linkonce_odr hidden noundef zeroext i1 @_ZN6Assimp10TXmlParserIN4pugi8xml_nodeEE12hasAttributeERS2_PKc(ptr noundef nonnull align 8 dereferenceable(8) %xmlNode, ptr noundef %name) #2 comdat align 2 {
entry:
  %xmlNode.addr = alloca ptr, align 8
  %name.addr = alloca ptr, align 8
  %attr = alloca %"class.pugi::xml_attribute", align 8
  store ptr %xmlNode, ptr %xmlNode.addr, align 8
  store ptr %name, ptr %name.addr, align 8
  %0 = load ptr, ptr %xmlNode.addr, align 8
  %1 = load ptr, ptr %name.addr, align 8
  %call = call ptr @_ZNK4pugi8xml_node9attributeEPKc(ptr noundef nonnull align 8 dereferenceable(8) %0, ptr noundef %1)
  %coerce.dive = getelementptr inbounds %"class.pugi::xml_attribute", ptr %attr, i32 0, i32 0
  store ptr %call, ptr %coerce.dive, align 8
  %call1 = call noundef zeroext i1 @_ZNK4pugi13xml_attribute5emptyEv(ptr noundef nonnull align 8 dereferenceable(8) %attr)
  %lnot = xor i1 %call1, true
  ret i1 %lnot
}

; Function Attrs: mustprogress uwtable
define hidden noundef zeroext i16 @_ZNK6Assimp4Ogre17OgreXmlSerializer13ReadAttributeItEET_RN4pugi8xml_nodeEPKc(ptr noundef nonnull align 8 dereferenceable(8) %this, ptr noundef nonnull align 8 dereferenceable(8) %xmlNode, ptr noundef %name) #2 align 2 personality ptr @__gxx_personality_v0 {
entry:
  %this.addr = alloca ptr, align 8
  %xmlNode.addr = alloca ptr, align 8
  %name.addr = alloca ptr, align 8
  %ref.tmp = alloca %"class.std::__cxx11::basic_string", align 8
  %ref.tmp3 = alloca %"class.std::allocator.3", align 1
  %exn.slot = alloca ptr, align 8
  %ehselector.slot = alloca i32, align 4
  %ref.tmp4 = alloca %"class.std::__cxx11::basic_string", align 8
  %ref.tmp5 = alloca %"class.std::allocator.3", align 1
  %ref.tmp8 = alloca %"class.std::__cxx11::basic_string", align 8
  %ref.tmp9 = alloca %"class.std::allocator.3", align 1
  %ref.tmp18 = alloca %"class.pugi::xml_attribute", align 8
  store ptr %this, ptr %this.addr, align 8
  store ptr %xmlNode, ptr %xmlNode.addr, align 8
  store ptr %name, ptr %name.addr, align 8
  %0 = load ptr, ptr %xmlNode.addr, align 8
  %1 = load ptr, ptr %name.addr, align 8
  %call = call noundef zeroext i1 @_ZN6Assimp10TXmlParserIN4pugi8xml_nodeEE12hasAttributeERS2_PKc(ptr noundef nonnull align 8 dereferenceable(8) %0, ptr noundef %1)
  br i1 %call, label %if.end, label %if.then

if.then:                                          ; preds = %entry
  %2 = load ptr, ptr %xmlNode.addr, align 8
  %call2 = call noundef ptr @_ZNK4pugi8xml_node4nameEv(ptr noundef nonnull align 8 dereferenceable(8) %2)
  call void @_ZNSaIcEC1Ev(ptr noundef nonnull align 1 dereferenceable(1) %ref.tmp3) #5
  invoke void @_ZNSt7__cxx1112basic_stringIcSt11char_traitsIcESaIcEEC2IS3_EEPKcRKS3_(ptr noundef nonnull align 8 dereferenceable(32) %ref.tmp, ptr noundef %call2, ptr noundef nonnull align 1 dereferenceable(1) %ref.tmp3)
          to label %invoke.cont unwind label %lpad

invoke.cont:                                      ; preds = %if.then
  %3 = load ptr, ptr %name.addr, align 8
  call void @_ZNSaIcEC1Ev(ptr noundef nonnull align 1 dereferenceable(1) %ref.tmp5) #5
  invoke void @_ZNSt7__cxx1112basic_stringIcSt11char_traitsIcESaIcEEC2IS3_EEPKcRKS3_(ptr noundef nonnull align 8 dereferenceable(32) %ref.tmp4, ptr noundef %3, ptr noundef nonnull align 1 dereferenceable(1) %ref.tmp5)
          to label %invoke.cont7 unwind label %lpad6

invoke.cont7:                                     ; preds = %invoke.cont
  call void @_ZNSaIcEC1Ev(ptr noundef nonnull align 1 dereferenceable(1) %ref.tmp9) #5
  invoke void @_ZNSt7__cxx1112basic_stringIcSt11char_traitsIcESaIcEEC2IS3_EEPKcRKS3_(ptr noundef nonnull align 8 dereferenceable(32) %ref.tmp8, ptr noundef @.str.5, ptr noundef nonnull align 1 dereferenceable(1) %ref.tmp9)
          to label %invoke.cont11 unwind label %lpad10

invoke.cont11:                                    ; preds = %invoke.cont7
  invoke void @_ZN6Assimp4Ogre18ThrowAttibuteErrorERKNSt7__cxx1112basic_stringIcSt11char_traitsIcESaIcEEES8_S8_(ptr noundef nonnull align 8 dereferenceable(32) %ref.tmp, ptr noundef nonnull align 8 dereferenceable(32) %ref.tmp4, ptr noundef nonnull align 8 dereferenceable(32) %ref.tmp8) #19
          to label %invoke.cont13 unwind label %lpad12

invoke.cont13:                                    ; preds = %invoke.cont11
  unreachable

lpad:                                             ; preds = %if.then
  %4 = landingpad { ptr, i32 }
          cleanup
  %5 = extractvalue { ptr, i32 } %4, 0
  store ptr %5, ptr %exn.slot, align 8
  %6 = extractvalue { ptr, i32 } %4, 1
  store i32 %6, ptr %ehselector.slot, align 4
  br label %ehcleanup17

lpad6:                                            ; preds = %invoke.cont
  %7 = landingpad { ptr, i32 }
          cleanup
  %8 = extractvalue { ptr, i32 } %7, 0
  store ptr %8, ptr %exn.slot, align 8
  %9 = extractvalue { ptr, i32 } %7, 1
  store i32 %9, ptr %ehselector.slot, align 4
  br label %ehcleanup15

lpad10:                                           ; preds = %invoke.cont7
  %10 = landingpad { ptr, i32 }
          cleanup
  %11 = extractvalue { ptr, i32 } %10, 0
  store ptr %11, ptr %exn.slot, align 8
  %12 = extractvalue { ptr, i32 } %10, 1
  store i32 %12, ptr %ehselector.slot, align 4
  br label %ehcleanup

lpad12:                                           ; preds = %invoke.cont11
  %13 = landingpad { ptr, i32 }
          cleanup
  %14 = extractvalue { ptr, i32 } %13, 0
  store ptr %14, ptr %exn.slot, align 8
  %15 = extractvalue { ptr, i32 } %13, 1
  store i32 %15, ptr %ehselector.slot, align 4
  call void @_ZNSt7__cxx1112basic_stringIcSt11char_traitsIcESaIcEED1Ev(ptr noundef nonnull align 8 dereferenceable(32) %ref.tmp8) #5
  br label %ehcleanup

ehcleanup:                                        ; preds = %lpad12, %lpad10
  call void @_ZNSaIcED1Ev(ptr noundef nonnull align 1 dereferenceable(1) %ref.tmp9) #5
  call void @_ZNSt7__cxx1112basic_stringIcSt11char_traitsIcESaIcEED1Ev(ptr noundef nonnull align 8 dereferenceable(32) %ref.tmp4) #5
  br label %ehcleanup15

ehcleanup15:                                      ; preds = %ehcleanup, %lpad6
  call void @_ZNSaIcED1Ev(ptr noundef nonnull align 1 dereferenceable(1) %ref.tmp5) #5
  call void @_ZNSt7__cxx1112basic_stringIcSt11char_traitsIcESaIcEED1Ev(ptr noundef nonnull align 8 dereferenceable(32) %ref.tmp) #5
  br label %ehcleanup17

ehcleanup17:                                      ; preds = %ehcleanup15, %lpad
  call void @_ZNSaIcED1Ev(ptr noundef nonnull align 1 dereferenceable(1) %ref.tmp3) #5
  br label %eh.resume

if.end:                                           ; preds = %entry
  %16 = load ptr, ptr %xmlNode.addr, align 8
  %17 = load ptr, ptr %name.addr, align 8
  %call19 = call ptr @_ZNK4pugi8xml_node9attributeEPKc(ptr noundef nonnull align 8 dereferenceable(8) %16, ptr noundef %17)
  %coerce.dive = getelementptr inbounds %"class.pugi::xml_attribute", ptr %ref.tmp18, i32 0, i32 0
  store ptr %call19, ptr %coerce.dive, align 8
  %call20 = call noundef i32 @_ZNK4pugi13xml_attribute6as_intEi(ptr noundef nonnull align 8 dereferenceable(8) %ref.tmp18, i32 noundef 0)
  %conv = trunc i32 %call20 to i16
  ret i16 %conv

eh.resume:                                        ; preds = %ehcleanup17
  %exn = load ptr, ptr %exn.slot, align 8
  %sel = load i32, ptr %ehselector.slot, align 4
  %lpad.val = insertvalue { ptr, i32 } poison, ptr %exn, 0
  %lpad.val21 = insertvalue { ptr, i32 } %lpad.val, i32 %sel, 1
  resume { ptr, i32 } %lpad.val21
}